; Function Attrs: mustprogress uwtable
define internal void @_ZNK7V3Sched12_GLOBAL__N_114SchedSenVertex4nameB5cxx11Ev(ptr dead_on_unwind noalias writable sret(%"class.std::__cxx11::basic_string") align 8 %0, ptr nocapture noundef nonnull readonly align 8 dereferenceable(88) %1) unnamed_addr #3 align 2 personality ptr @__gxx_personality_v0 {
  %3 = alloca %"class.std::__cxx11::basic_ostringstream", align 8
  call void @_ZNSt7__cxx1119basic_ostringstreamIcSt11char_traitsIcESaIcEEC1Ev(ptr noundef nonnull align 8 dereferenceable(112) %3)
  %4 = getelementptr inbounds i8, ptr %1, i64 80
  %5 = load ptr, ptr %4, align 8
  invoke void @_ZN7V3EmitV14verilogForTreeEPK7AstNodeRSo(ptr noundef %5, ptr noundef nonnull align 8 dereferenceable(8) %3)
          to label %6 unwind label %8

6:                                                ; preds = %2
  invoke void @_ZNKSt7__cxx1119basic_ostringstreamIcSt11char_traitsIcESaIcEE3strEv(ptr dead_on_unwind writable sret(%"class.std::__cxx11::basic_string") align 8 %0, ptr noundef nonnull align 8 dereferenceable(112) %3)
          to label %7 unwind label %8

7:                                                ; preds = %6
  call void @_ZNSt7__cxx1119basic_ostringstreamIcSt11char_traitsIcESaIcEED1Ev(ptr noundef nonnull align 8 dereferenceable(112) %3) #24
  ret void

8:                                                ; preds = %6, %2
  %9 = landingpad { ptr, i32 }
          cleanup
  call void @_ZNSt7__cxx1119basic_ostringstreamIcSt11char_traitsIcESaIcEED1Ev(ptr noundef nonnull align 8 dereferenceable(112) %3) #24
  resume { ptr, i32 } %9
}